; Function Attrs: mustprogress uwtable
define internal fastcc nonnull ptr @"_ZN6google8protobuf8internal12ExtensionSet7ForEachISt17_Rb_tree_iteratorISt4pairIKiNS2_9ExtensionEEEZNKS2_18MessageSetByteSizeEvE3$_0EET0_T_SC_SB_"(ptr %0, ptr readnone %1, ptr nonnull returned %2) unnamed_addr #8 align 2 {
  %.not7 = icmp eq ptr %0, %1
  br i1 %.not7, label %._crit_edge, label %.lr.ph

.lr.ph:                                           ; preds = %3
  %4 = load i64, ptr @_ZN6google8protobuf8internal14WireFormatLite23kMessageSetItemTagsSizeE, align 8
  br label %5

._crit_edge:                                      ; preds = %"_ZZNK6google8protobuf8internal12ExtensionSet18MessageSetByteSizeEvENK3$_0clEiRKNS2_9ExtensionE.exit", %3
  ret ptr %2

5:                                                ; preds = %.lr.ph, %"_ZZNK6google8protobuf8internal12ExtensionSet18MessageSetByteSizeEvENK3$_0clEiRKNS2_9ExtensionE.exit"
  %.sroa.0.08 = phi ptr [ %0, %.lr.ph ], [ %48, %"_ZZNK6google8protobuf8internal12ExtensionSet18MessageSetByteSizeEvENK3$_0clEiRKNS2_9ExtensionE.exit" ]
  %6 = getelementptr inbounds nuw i8, ptr %.sroa.0.08, i64 32
  %7 = load i32, ptr %6, align 8, !tbaa !156
  %8 = getelementptr inbounds nuw i8, ptr %.sroa.0.08, i64 40
  %9 = getelementptr inbounds nuw i8, ptr %.sroa.0.08, i64 48
  %10 = load i8, ptr %9, align 8, !tbaa !83
  %.not.i.i = icmp eq i8 %10, 11
  br i1 %.not.i.i, label %11, label %15

11:                                               ; preds = %5
  %12 = getelementptr inbounds nuw i8, ptr %.sroa.0.08, i64 49
  %13 = load i8, ptr %12, align 1, !tbaa !103, !range !104, !noundef !80
  %14 = trunc nuw i8 %13 to i1
  br i1 %14, label %15, label %17

15:                                               ; preds = %11, %5
  %16 = tail call noundef i64 @_ZNK6google8protobuf8internal12ExtensionSet9Extension8ByteSizeEi(ptr noundef nonnull align 8 dereferenceable(24) %8, i32 noundef %7)
  br label %"_ZZNK6google8protobuf8internal12ExtensionSet18MessageSetByteSizeEvENK3$_0clEiRKNS2_9ExtensionE.exit"

17:                                               ; preds = %11
  %18 = getelementptr inbounds nuw i8, ptr %.sroa.0.08, i64 50
  %19 = load i8, ptr %18, align 2
  %20 = trunc i8 %19 to i1
  br i1 %20, label %"_ZZNK6google8protobuf8internal12ExtensionSet18MessageSetByteSizeEvENK3$_0clEiRKNS2_9ExtensionE.exit", label %21

21:                                               ; preds = %17
  %22 = or i32 %7, 1
  %23 = tail call range(i32 0, 33) i32 @llvm.ctlz.i32(i32 %22, i1 true)
  %24 = xor i32 %23, 31
  %25 = mul nuw nsw i32 %24, 9
  %26 = add nuw nsw i32 %25, 73
  %27 = lshr i32 %26, 6
  %28 = zext nneg i32 %27 to i64
  %29 = add i64 %4, %28
  %30 = and i8 %19, 16
  %.not10.i.i = icmp eq i8 %30, 0
  %31 = load ptr, ptr %8, align 8, !tbaa !38
  %32 = load ptr, ptr %31, align 8, !tbaa !54
  %..i.i = select i1 %.not10.i.i, i64 64, i64 88
  %33 = getelementptr inbounds nuw i8, ptr %32, i64 %..i.i
  %34 = load ptr, ptr %33, align 8
  %35 = tail call noundef i64 %34(ptr noundef nonnull align 8 dereferenceable(8) %31)
  %36 = trunc i64 %35 to i32
  %37 = or i32 %36, 1
  %38 = tail call range(i32 0, 33) i32 @llvm.ctlz.i32(i32 %37, i1 true)
  %39 = xor i32 %38, 31
  %40 = mul nuw nsw i32 %39, 9
  %41 = add nuw nsw i32 %40, 73
  %42 = lshr i32 %41, 6
  %43 = zext nneg i32 %42 to i64
  %44 = add i64 %29, %35
  %45 = add i64 %44, %43
  br label %"_ZZNK6google8protobuf8internal12ExtensionSet18MessageSetByteSizeEvENK3$_0clEiRKNS2_9ExtensionE.exit"

"_ZZNK6google8protobuf8internal12ExtensionSet18MessageSetByteSizeEvENK3$_0clEiRKNS2_9ExtensionE.exit": ; preds = %15, %17, %21
  %.09.i.i = phi i64 [ %16, %15 ], [ %45, %21 ], [ 0, %17 ]
  %46 = load i64, ptr %2, align 8, !tbaa !119
  %47 = add i64 %46, %.09.i.i
  store i64 %47, ptr %2, align 8, !tbaa !119
  %48 = tail call noundef ptr @_ZSt18_Rb_tree_incrementPSt18_Rb_tree_node_base(ptr noundef nonnull %.sroa.0.08) #34
  %.not = icmp eq ptr %48, %1
  br i1 %.not, label %._crit_edge, label %5, !llvm.loop !333
}